target datalayout = "e-m:e-p270:32:32-p271:32:32-p272:64:64-i64:64-i128:128-f80:128-n8:16:32:64-S128"
target triple = "x86_64-pc-linux-gnu"

%struct.Map2D = type { i32, i32, ptr }
%struct.HeatmapList = type { %struct.Map2D, ptr }

; Function Attrs: nounwind uwtable
define internal void @map_uninit(ptr noundef %0) #0 {
  %2 = alloca ptr, align 8
  store ptr %0, ptr %2, align 8, !tbaa !140
  %3 = load ptr, ptr %2, align 8, !tbaa !140
  %4 = getelementptr inbounds nuw %struct.Map2D, ptr %3, i32 0, i32 2
  call void @av_freep(ptr noundef %4)
  ret void
}

; Function Attrs: nounwind uwtable
define internal void @map_list_free(ptr noundef %0) #0 {
  %2 = alloca ptr, align 8
  %3 = alloca ptr, align 8
  %4 = alloca ptr, align 8
  store ptr %0, ptr %2, align 8, !tbaa !142
  call void @llvm.lifetime.start.p0(i64 8, ptr %3) #14
  %5 = load ptr, ptr %2, align 8, !tbaa !142
  %6 = load ptr, ptr %5, align 8, !tbaa !144
  store ptr %6, ptr %3, align 8, !tbaa !144
  br label %7

7:                                                ; preds = %10, %1
  %8 = load ptr, ptr %3, align 8, !tbaa !144
  %9 = icmp ne ptr %8, null
  br i1 %9, label %10, label %17

10:                                               ; preds = %7
  call void @llvm.lifetime.start.p0(i64 8, ptr %4) #14
  %11 = load ptr, ptr %3, align 8, !tbaa !144
  %12 = getelementptr inbounds nuw %struct.HeatmapList, ptr %11, i32 0, i32 1
  %13 = load ptr, ptr %12, align 8, !tbaa !164
  store ptr %13, ptr %4, align 8, !tbaa !144
  %14 = load ptr, ptr %3, align 8, !tbaa !144
  %15 = getelementptr inbounds nuw %struct.HeatmapList, ptr %14, i32 0, i32 0
  call void @map_uninit(ptr noundef %15)
  call void @av_freep(ptr noundef %3)
  %16 = load ptr, ptr %4, align 8, !tbaa !144
  store ptr %16, ptr %3, align 8, !tbaa !144
  call void @llvm.lifetime.end.p0(i64 8, ptr %4) #14
  br label %7, !llvm.loop !172

17:                                               ; preds = %7
  %18 = load ptr, ptr %2, align 8, !tbaa !142
  store ptr null, ptr %18, align 8, !tbaa !144
  call void @llvm.lifetime.end.p0(i64 8, ptr %3) #14
  ret void
}