; Function Attrs: nounwind uwtable
define internal fastcc void @map_list_free(ptr noundef captures(none) %0) unnamed_addr #0 {
  %2 = alloca ptr, align 8
  call void @llvm.lifetime.start.p0(i64 8, ptr nonnull %2) #15
  %3 = load ptr, ptr %0, align 8, !tbaa !40
  store ptr %3, ptr %2, align 8, !tbaa !40
  %.not3 = icmp eq ptr %3, null
  br i1 %.not3, label %._crit_edge, label %.lr.ph

.lr.ph:                                           ; preds = %1, %.lr.ph
  %storemerge4 = phi ptr [ %5, %.lr.ph ], [ %3, %1 ]
  %4 = getelementptr inbounds nuw i8, ptr %storemerge4, i64 16
  %5 = load ptr, ptr %4, align 8, !tbaa !51
  %6 = getelementptr inbounds nuw i8, ptr %storemerge4, i64 8
  call void @av_freep(ptr noundef nonnull %6) #15
  call void @av_freep(ptr noundef nonnull %2) #15
  store ptr %5, ptr %2, align 8, !tbaa !40
  %.not = icmp eq ptr %5, null
  br i1 %.not, label %._crit_edge, label %.lr.ph, !llvm.loop !52

._crit_edge:                                      ; preds = %.lr.ph, %1
  store ptr null, ptr %0, align 8, !tbaa !40
  call void @llvm.lifetime.end.p0(i64 8, ptr nonnull %2) #15
  ret void
}